; Function Attrs: nounwind uwtable
define range(i32 0, 2) i32 @ossl_DER_w_precompiled(ptr noundef %0, i32 noundef %1, ptr noundef %2, i64 noundef %3) local_unnamed_addr #0 {
  %5 = alloca i64, align 8
  %6 = alloca i64, align 8
  %7 = icmp slt i32 %1, 0
  br i1 %7, label %int_start_context.exit.thread10, label %8

8:                                                ; preds = %4
  %9 = icmp samesign ult i32 %1, 31
  br i1 %9, label %int_start_context.exit, label %int_start_context.exit.thread, !prof !3

int_start_context.exit:                           ; preds = %8
  %10 = tail call i32 @WPACKET_start_sub_packet(ptr noundef %0) #4
  %.not = icmp eq i32 %10, 0
  br i1 %.not, label %int_start_context.exit.thread, label %.thread

int_start_context.exit.thread10:                  ; preds = %4
  %11 = tail call i32 @WPACKET_memcpy(ptr noundef %0, ptr noundef %2, i64 noundef %3) #4
  %.not6 = icmp eq i32 %11, 0
  br i1 %.not6, label %int_start_context.exit.thread, label %13

.thread:                                          ; preds = %int_start_context.exit
  %12 = tail call i32 @WPACKET_memcpy(ptr noundef %0, ptr noundef %2, i64 noundef %3) #4
  %.not613 = icmp eq i32 %12, 0
  br i1 %.not613, label %int_start_context.exit.thread, label %14

13:                                               ; preds = %int_start_context.exit.thread10
  call void @llvm.lifetime.start.p0(i64 8, ptr nonnull %5) #4
  call void @llvm.lifetime.start.p0(i64 8, ptr nonnull %6) #4
  br label %int_end_context.exit

14:                                               ; preds = %.thread
  call void @llvm.lifetime.start.p0(i64 8, ptr nonnull %5) #4
  call void @llvm.lifetime.start.p0(i64 8, ptr nonnull %6) #4
  %15 = or disjoint i32 %1, 160
  %16 = call i32 @WPACKET_get_total_written(ptr noundef %0, ptr noundef nonnull %5) #4
  %.not.i = icmp eq i32 %16, 0
  br i1 %.not.i, label %int_end_context.exit, label %17

17:                                               ; preds = %14
  %18 = call i32 @WPACKET_close(ptr noundef %0) #4
  %.not9.i = icmp eq i32 %18, 0
  br i1 %.not9.i, label %int_end_context.exit, label %19

19:                                               ; preds = %17
  %20 = call i32 @WPACKET_get_total_written(ptr noundef %0, ptr noundef nonnull %6) #4
  %.not10.i = icmp eq i32 %20, 0
  br i1 %.not10.i, label %int_end_context.exit, label %21

21:                                               ; preds = %19
  %22 = load i64, ptr %5, align 8, !tbaa !4
  %23 = load i64, ptr %6, align 8, !tbaa !4
  %24 = icmp eq i64 %22, %23
  br i1 %24, label %int_end_context.exit, label %25

25:                                               ; preds = %21
  %26 = zext nneg i32 %15 to i64
  %27 = call i32 @WPACKET_put_bytes__(ptr noundef %0, i64 noundef %26, i64 noundef 1) #4
  %28 = icmp ne i32 %27, 0
  %29 = zext i1 %28 to i32
  br label %int_end_context.exit

int_end_context.exit:                             ; preds = %13, %14, %17, %19, %21, %25
  %.0.i7 = phi i32 [ 1, %13 ], [ 0, %19 ], [ 0, %17 ], [ 0, %14 ], [ 1, %21 ], [ %29, %25 ]
  call void @llvm.lifetime.end.p0(i64 8, ptr nonnull %6) #4
  call void @llvm.lifetime.end.p0(i64 8, ptr nonnull %5) #4
  br label %int_start_context.exit.thread

int_start_context.exit.thread:                    ; preds = %8, %.thread, %int_end_context.exit, %int_start_context.exit.thread10, %int_start_context.exit
  %30 = phi i32 [ 0, %int_start_context.exit.thread10 ], [ 0, %int_start_context.exit ], [ %.0.i7, %int_end_context.exit ], [ 0, %.thread ], [ 0, %8 ]
  ret i32 %30
}